target datalayout = "e-m:e-p270:32:32-p271:32:32-p272:64:64-i64:64-i128:128-f80:128-n8:16:32:64-S128"
target triple = "x86_64-pc-linux-gnu"

%struct.H5T_t = type { %struct.H5O_shared_t, ptr, %struct.H5O_loc_t, %struct.H5G_name_t, ptr }
%struct.H5O_shared_t = type { i32, ptr, i32, %union.anon }
%union.anon = type { %struct.H5O_mesg_loc_t }
%struct.H5O_mesg_loc_t = type { i32, i64 }
%struct.H5O_loc_t = type { ptr, i64, i8 }
%struct.H5G_name_t = type { ptr, ptr, i32 }
%struct.H5T_shared_t = type { i64, i32, i32, i64, i32, i8, ptr, ptr, %union.anon.0 }
%union.anon.0 = type { %struct.H5T_array_t }
%struct.H5T_array_t = type { i64, i32, [32 x i64] }

@.str = private unnamed_addr constant [102 x i8] c"generated/home/dtcxzyw/WorkSpace/Projects/compilers/llvm-opt-benchmark/bench/hdf5/hdf5/src/H5Tarray.c\00", align 1
@H5E_DATATYPE_g = external global i64, align 8
@__func__.H5T__array_create = private unnamed_addr constant [18 x i8] c"H5T__array_create\00", align 1
@H5E_RESOURCE_g = external global i64, align 8
@H5E_NOSPACE_g = external global i64, align 8
@.str.10 = private unnamed_addr constant [25 x i8] c"memory allocation failed\00", align 1
@H5E_CANTCOPY_g = external global i64, align 8
@.str.11 = private unnamed_addr constant [29 x i8] c"unable to copy base datatype\00", align 1

; Function Attrs: nounwind uwtable
define ptr @H5T__array_create(ptr noundef %0, i32 noundef %1, ptr noundef %2) #0 {
  %4 = alloca ptr, align 8
  %5 = alloca i32, align 4
  %6 = alloca ptr, align 8
  %7 = alloca i32, align 4
  %8 = alloca ptr, align 8
  %9 = alloca i8, align 1
  store ptr %0, ptr %4, align 8
  store i32 %1, ptr %5, align 4
  store ptr %2, ptr %6, align 8
  store ptr null, ptr %8, align 8
  store i8 0, ptr %9, align 1
  %10 = call ptr @H5T__alloc()
  store ptr %10, ptr %8, align 8
  %11 = icmp eq ptr null, %10
  br i1 %11, label %12, label %27

12:                                               ; preds = %3
  br label %13

13:                                               ; preds = %12
  br label %14

14:                                               ; preds = %13
  br label %15

15:                                               ; preds = %14
  %16 = load i64, ptr @H5E_RESOURCE_g, align 8
  %17 = load i64, ptr @H5E_NOSPACE_g, align 8
  %18 = call i32 (ptr, ptr, i32, i64, i64, ptr, ...) @H5E_printf_stack(ptr noundef @.str, ptr noundef @__func__.H5T__array_create, i32 noundef 145, i64 noundef %16, i64 noundef %17, ptr noundef @.str.10)
  br label %19

19:                                               ; preds = %15
  store i8 1, ptr %9, align 1
  %20 = load i8, ptr %9, align 1
  %21 = trunc i8 %20 to i1
  %22 = zext i1 %21 to i8
  store i8 %22, ptr %9, align 1
  br label %23

23:                                               ; preds = %19
  br label %24

24:                                               ; preds = %23
  store ptr null, ptr %8, align 8
  br label %155

25:                                               ; No predecessors!
  br label %26

26:                                               ; preds = %25
  br label %27

27:                                               ; preds = %26, %3
  %28 = load ptr, ptr %8, align 8
  %29 = getelementptr inbounds %struct.H5T_t, ptr %28, i32 0, i32 1
  %30 = load ptr, ptr %29, align 8
  %31 = getelementptr inbounds %struct.H5T_shared_t, ptr %30, i32 0, i32 2
  store i32 10, ptr %31, align 4
  %32 = load ptr, ptr %4, align 8
  %33 = call ptr @H5T_copy(ptr noundef %32, i32 noundef 1)
  %34 = load ptr, ptr %8, align 8
  %35 = getelementptr inbounds %struct.H5T_t, ptr %34, i32 0, i32 1
  %36 = load ptr, ptr %35, align 8
  %37 = getelementptr inbounds %struct.H5T_shared_t, ptr %36, i32 0, i32 6
  store ptr %33, ptr %37, align 8
  %38 = icmp eq ptr null, %33
  br i1 %38, label %39, label %54

39:                                               ; preds = %27
  br label %40

40:                                               ; preds = %39
  br label %41

41:                                               ; preds = %40
  br label %42

42:                                               ; preds = %41
  %43 = load i64, ptr @H5E_DATATYPE_g, align 8
  %44 = load i64, ptr @H5E_CANTCOPY_g, align 8
  %45 = call i32 (ptr, ptr, i32, i64, i64, ptr, ...) @H5E_printf_stack(ptr noundef @.str, ptr noundef @__func__.H5T__array_create, i32 noundef 150, i64 noundef %43, i64 noundef %44, ptr noundef @.str.11)
  br label %46

46:                                               ; preds = %42
  store i8 1, ptr %9, align 1
  %47 = load i8, ptr %9, align 1
  %48 = trunc i8 %47 to i1
  %49 = zext i1 %48 to i8
  store i8 %49, ptr %9, align 1
  br label %50

50:                                               ; preds = %46
  br label %51

51:                                               ; preds = %50
  store ptr null, ptr %8, align 8
  br label %155

52:                                               ; No predecessors!
  br label %53

53:                                               ; preds = %52
  br label %54

54:                                               ; preds = %53, %27
  %55 = load i32, ptr %5, align 4
  %56 = load ptr, ptr %8, align 8
  %57 = getelementptr inbounds %struct.H5T_t, ptr %56, i32 0, i32 1
  %58 = load ptr, ptr %57, align 8
  %59 = getelementptr inbounds %struct.H5T_shared_t, ptr %58, i32 0, i32 8
  %60 = getelementptr inbounds %struct.H5T_array_t, ptr %59, i32 0, i32 1
  store i32 %55, ptr %60, align 8
  store i32 0, ptr %7, align 4
  %61 = load ptr, ptr %8, align 8
  %62 = getelementptr inbounds %struct.H5T_t, ptr %61, i32 0, i32 1
  %63 = load ptr, ptr %62, align 8
  %64 = getelementptr inbounds %struct.H5T_shared_t, ptr %63, i32 0, i32 8
  %65 = getelementptr inbounds %struct.H5T_array_t, ptr %64, i32 0, i32 0
  store i64 1, ptr %65, align 8
  br label %66

66:                                               ; preds = %98, %54
  %67 = load i32, ptr %7, align 4
  %68 = load i32, ptr %5, align 4
  %69 = icmp ult i32 %67, %68
  br i1 %69, label %70, label %101

70:                                               ; preds = %66
  br label %71

71:                                               ; preds = %70
  %72 = load ptr, ptr %6, align 8
  %73 = load i32, ptr %7, align 4
  %74 = zext i32 %73 to i64
  %75 = getelementptr inbounds i64, ptr %72, i64 %74
  %76 = load i64, ptr %75, align 8
  %77 = load ptr, ptr %8, align 8
  %78 = getelementptr inbounds %struct.H5T_t, ptr %77, i32 0, i32 1
  %79 = load ptr, ptr %78, align 8
  %80 = getelementptr inbounds %struct.H5T_shared_t, ptr %79, i32 0, i32 8
  %81 = getelementptr inbounds %struct.H5T_array_t, ptr %80, i32 0, i32 2
  %82 = load i32, ptr %7, align 4
  %83 = zext i32 %82 to i64
  %84 = getelementptr inbounds [32 x i64], ptr %81, i64 0, i64 %83
  store i64 %76, ptr %84, align 8
  br label %85

85:                                               ; preds = %71
  %86 = load ptr, ptr %6, align 8
  %87 = load i32, ptr %7, align 4
  %88 = zext i32 %87 to i64
  %89 = getelementptr inbounds i64, ptr %86, i64 %88
  %90 = load i64, ptr %89, align 8
  %91 = load ptr, ptr %8, align 8
  %92 = getelementptr inbounds %struct.H5T_t, ptr %91, i32 0, i32 1
  %93 = load ptr, ptr %92, align 8
  %94 = getelementptr inbounds %struct.H5T_shared_t, ptr %93, i32 0, i32 8
  %95 = getelementptr inbounds %struct.H5T_array_t, ptr %94, i32 0, i32 0
  %96 = load i64, ptr %95, align 8
  %97 = mul i64 %96, %90
  store i64 %97, ptr %95, align 8
  br label %98

98:                                               ; preds = %85
  %99 = load i32, ptr %7, align 4
  %100 = add i32 %99, 1
  store i32 %100, ptr %7, align 4
  br label %66

101:                                              ; preds = %66
  %102 = load ptr, ptr %8, align 8
  %103 = getelementptr inbounds %struct.H5T_t, ptr %102, i32 0, i32 1
  %104 = load ptr, ptr %103, align 8
  %105 = getelementptr inbounds %struct.H5T_shared_t, ptr %104, i32 0, i32 6
  %106 = load ptr, ptr %105, align 8
  %107 = getelementptr inbounds %struct.H5T_t, ptr %106, i32 0, i32 1
  %108 = load ptr, ptr %107, align 8
  %109 = getelementptr inbounds %struct.H5T_shared_t, ptr %108, i32 0, i32 3
  %110 = load i64, ptr %109, align 8
  %111 = load ptr, ptr %8, align 8
  %112 = getelementptr inbounds %struct.H5T_t, ptr %111, i32 0, i32 1
  %113 = load ptr, ptr %112, align 8
  %114 = getelementptr inbounds %struct.H5T_shared_t, ptr %113, i32 0, i32 8
  %115 = getelementptr inbounds %struct.H5T_array_t, ptr %114, i32 0, i32 0
  %116 = load i64, ptr %115, align 8
  %117 = mul i64 %110, %116
  %118 = load ptr, ptr %8, align 8
  %119 = getelementptr inbounds %struct.H5T_t, ptr %118, i32 0, i32 1
  %120 = load ptr, ptr %119, align 8
  %121 = getelementptr inbounds %struct.H5T_shared_t, ptr %120, i32 0, i32 3
  store i64 %117, ptr %121, align 8
  %122 = load ptr, ptr %4, align 8
  %123 = getelementptr inbounds %struct.H5T_t, ptr %122, i32 0, i32 1
  %124 = load ptr, ptr %123, align 8
  %125 = getelementptr inbounds %struct.H5T_shared_t, ptr %124, i32 0, i32 5
  %126 = load i8, ptr %125, align 4
  %127 = trunc i8 %126 to i1
  %128 = zext i1 %127 to i32
  %129 = icmp eq i32 %128, 1
  br i1 %129, label %130, label %135

130:                                              ; preds = %101
  %131 = load ptr, ptr %8, align 8
  %132 = getelementptr inbounds %struct.H5T_t, ptr %131, i32 0, i32 1
  %133 = load ptr, ptr %132, align 8
  %134 = getelementptr inbounds %struct.H5T_shared_t, ptr %133, i32 0, i32 5
  store i8 1, ptr %134, align 4
  br label %135

135:                                              ; preds = %130, %101
  %136 = load ptr, ptr %4, align 8
  %137 = getelementptr inbounds %struct.H5T_t, ptr %136, i32 0, i32 1
  %138 = load ptr, ptr %137, align 8
  %139 = getelementptr inbounds %struct.H5T_shared_t, ptr %138, i32 0, i32 4
  %140 = load i32, ptr %139, align 8
  %141 = icmp ugt i32 %140, 2
  br i1 %141, label %142, label %148

142:                                              ; preds = %135
  %143 = load ptr, ptr %4, align 8
  %144 = getelementptr inbounds %struct.H5T_t, ptr %143, i32 0, i32 1
  %145 = load ptr, ptr %144, align 8
  %146 = getelementptr inbounds %struct.H5T_shared_t, ptr %145, i32 0, i32 4
  %147 = load i32, ptr %146, align 8
  br label %149

148:                                              ; preds = %135
  br label %149

149:                                              ; preds = %148, %142
  %150 = phi i32 [ %147, %142 ], [ 2, %148 ]
  %151 = load ptr, ptr %8, align 8
  %152 = getelementptr inbounds %struct.H5T_t, ptr %151, i32 0, i32 1
  %153 = load ptr, ptr %152, align 8
  %154 = getelementptr inbounds %struct.H5T_shared_t, ptr %153, i32 0, i32 4
  store i32 %150, ptr %154, align 8
  br label %155

155:                                              ; preds = %149, %51, %24
  %156 = load ptr, ptr %8, align 8
  ret ptr %156
}