; Function Attrs: nounwind uwtable
define ptr @H5T__array_create(ptr noundef %0, i32 noundef %1, ptr nocapture noundef readonly %2) local_unnamed_addr #0 {
  %4 = tail call ptr @H5T__alloc() #5
  %5 = icmp eq ptr %4, null
  br i1 %5, label %6, label %10

6:                                                ; preds = %3
  %7 = load i64, ptr @H5E_RESOURCE_g, align 8
  %8 = load i64, ptr @H5E_NOSPACE_g, align 8
  %9 = tail call i32 (ptr, ptr, i32, i64, i64, ptr, ...) @H5E_printf_stack(ptr noundef nonnull @.str, ptr noundef nonnull @__func__.H5T__array_create, i32 noundef 145, i64 noundef %7, i64 noundef %8, ptr noundef nonnull @.str.10) #5
  br label %61

10:                                               ; preds = %3
  %11 = getelementptr inbounds i8, ptr %4, i64 40
  %12 = load ptr, ptr %11, align 8
  %13 = getelementptr inbounds i8, ptr %12, i64 12
  store i32 10, ptr %13, align 4
  %14 = tail call ptr @H5T_copy(ptr noundef %0, i32 noundef 1) #5
  %15 = load ptr, ptr %11, align 8
  %16 = getelementptr inbounds i8, ptr %15, i64 32
  store ptr %14, ptr %16, align 8
  %17 = icmp eq ptr %14, null
  br i1 %17, label %18, label %22

18:                                               ; preds = %10
  %19 = load i64, ptr @H5E_DATATYPE_g, align 8
  %20 = load i64, ptr @H5E_CANTCOPY_g, align 8
  %21 = tail call i32 (ptr, ptr, i32, i64, i64, ptr, ...) @H5E_printf_stack(ptr noundef nonnull @.str, ptr noundef nonnull @__func__.H5T__array_create, i32 noundef 150, i64 noundef %19, i64 noundef %20, ptr noundef nonnull @.str.11) #5
  br label %61

22:                                               ; preds = %10
  %23 = load ptr, ptr %11, align 8
  %24 = getelementptr inbounds i8, ptr %23, i64 56
  store i32 %1, ptr %24, align 8
  %25 = load ptr, ptr %11, align 8
  %26 = getelementptr inbounds i8, ptr %25, i64 48
  store i64 1, ptr %26, align 8
  %.not = icmp eq i32 %1, 0
  br i1 %.not, label %._crit_edge, label %.lr.ph.preheader

.lr.ph.preheader:                                 ; preds = %22
  %wide.trip.count = zext i32 %1 to i64
  br label %.lr.ph

.lr.ph:                                           ; preds = %.lr.ph.preheader, %.lr.ph
  %indvars.iv = phi i64 [ 0, %.lr.ph.preheader ], [ %indvars.iv.next, %.lr.ph ]
  %27 = getelementptr inbounds i64, ptr %2, i64 %indvars.iv
  %28 = load i64, ptr %27, align 8
  %29 = load ptr, ptr %11, align 8
  %30 = getelementptr inbounds i8, ptr %29, i64 64
  %31 = getelementptr inbounds [32 x i64], ptr %30, i64 0, i64 %indvars.iv
  store i64 %28, ptr %31, align 8
  %32 = load ptr, ptr %11, align 8
  %33 = getelementptr inbounds i8, ptr %32, i64 48
  %34 = load i64, ptr %33, align 8
  %35 = mul i64 %34, %28
  store i64 %35, ptr %33, align 8
  %indvars.iv.next = add nuw nsw i64 %indvars.iv, 1
  %exitcond.not = icmp eq i64 %indvars.iv.next, %wide.trip.count
  br i1 %exitcond.not, label %._crit_edge, label %.lr.ph

._crit_edge:                                      ; preds = %.lr.ph, %22
  %36 = load ptr, ptr %11, align 8
  %37 = getelementptr inbounds i8, ptr %36, i64 32
  %38 = load ptr, ptr %37, align 8
  %39 = getelementptr inbounds i8, ptr %38, i64 40
  %40 = load ptr, ptr %39, align 8
  %41 = getelementptr inbounds i8, ptr %40, i64 16
  %42 = load i64, ptr %41, align 8
  %43 = getelementptr inbounds i8, ptr %36, i64 48
  %44 = load i64, ptr %43, align 8
  %45 = mul i64 %44, %42
  %46 = getelementptr inbounds i8, ptr %36, i64 16
  store i64 %45, ptr %46, align 8
  %47 = getelementptr inbounds i8, ptr %0, i64 40
  %48 = load ptr, ptr %47, align 8
  %49 = getelementptr inbounds i8, ptr %48, i64 28
  %50 = load i8, ptr %49, align 4
  %51 = trunc i8 %50 to i1
  br i1 %51, label %52, label %55

52:                                               ; preds = %._crit_edge
  %53 = load ptr, ptr %11, align 8
  %54 = getelementptr inbounds i8, ptr %53, i64 28
  store i8 1, ptr %54, align 4
  %.pre = load ptr, ptr %47, align 8
  br label %55

55:                                               ; preds = %52, %._crit_edge
  %56 = phi ptr [ %.pre, %52 ], [ %48, %._crit_edge ]
  %57 = getelementptr inbounds i8, ptr %56, i64 24
  %58 = load i32, ptr %57, align 8
  %spec.select = tail call i32 @llvm.umax.i32(i32 %58, i32 2)
  %59 = load ptr, ptr %11, align 8
  %60 = getelementptr inbounds i8, ptr %59, i64 24
  store i32 %spec.select, ptr %60, align 8
  br label %61

61:                                               ; preds = %55, %18, %6
  %.0 = phi ptr [ null, %6 ], [ null, %18 ], [ %4, %55 ]
  ret ptr %.0
}